Certificate:
    Data:
        Version: 3 (0x2)
        Serial Number: 4097 (0x1001)
    Signature Algorithm: sha1WithRSAEncryption
        Issuer: C=AU, ST=Some-State, O=Internet Widgits Pty Ltd
        Validity
            Not Before: Mar 13 05:57:52 2014 GMT
            Not After : Mar 13 05:57:52 2015 GMT
        Subject: C=AU, ST=Some-State, O=Internet Widgits Pty Ltd, CN=example.com
        Subject Public Key Info:
            Public Key Algorithm: rsaEncryption
                Public-Key: (2048 bit)
                Modulus:
                    00:da:8b:2e:3e:15:9b:6c:e9:69:43:d1:21:e3:58:
                    23:52:4f:4c:5c:2d:eb:43:32:03:53:36:b0:26:f4:
                    e2:62:fd:ac:8b:7c:33:bd:d9:86:49:94:e9:aa:c1:
                    c5:9b:c1:15:df:2a:f0:01:80:99:8d:bb:da:f9:00:
                    3f:47:f8:eb:d5:2a:08:30:4d:6d:68:2e:f4:d9:04:
                    63:a2:b8:bf:12:f5:de:a0:d6:48:ed:36:5a:a1:f7:
                    64:e6:e8:05:78:6d:d1:f2:91:22:40:f2:37:42:fd:
                    8e:8f:b4:d5:36:da:b3:8a:9d:ff:17:65:60:82:bd:
                    ce:b0:a4:c2:33:b1:d9:32:ba:5e:86:ce:d2:63:b1:
                    af:6c:41:67:ab:af:fe:8c:8f:80:13:49:f6:8a:53:
                    ce:f2:9a:7b:52:ea:fc:eb:b5:dc:1d:d1:ff:ee:a1:
                    72:88:d4:ca:25:44:b3:56:dd:f4:f6:53:fc:73:35:
                    6d:ea:f6:5a:df:a7:1f:74:ba:1d:c1:59:7e:c1:28:
                    4a:f0:a6:f3:2e:e4:4e:e6:fa:f7:d8:be:39:8a:28:
                    82:2d:fe:50:d4:98:9e:8e:f4:1b:89:3e:98:8f:93:
                    e3:64:50:e3:97:d3:95:d6:ec:e3:97:e9:e8:0d:43:
                    97:83:f8:9a:04:e4:8e:b3:f5:1b:f4:e3:f5:aa:be:
                    f0:d7
                Exponent: 65537 (0x10001)
        X509v3 extensions:
            X509v3 Basic Constraints: 
                CA:FALSE
            Netscape Comment: 
                OpenSSL Generated Certificate
            X509v3 Subject Key Identifier: 
                8B:2E:7B:C5:5F:7A:D9:CB:54:D0:A6:01:60:1F:D5:18:86:53:6E:18
            X509v3 Authority Key Identifier: 
                keyid:54:D7:DE:8B:A5:EC:C8:39:07:55:18:C0:96:D3:D1:F6:68:EA:6C:50

    Signature Algorithm: sha1WithRSAEncryption
         9b:8e:14:2f:8c:16:ce:18:e1:c9:e2:e2:87:29:47:1f:32:5d:
         fb:23:c9:c7:e1:7e:73:98:45:68:fa:36:a0:99:c3:3a:de:0e:
         91:79:46:26:10:0c:4e:b6:c9:52:01:54:d6:98:e6:5a:74:de:
         2d:27:43:0e:b2:2c:bb:a8:4a:00:b6:26:18:5b:d5:88:65:70:
         c6:de:cc:69:c7:60:3c:a0:81:f5:c5:56:b3:84:af:2f:b7:b8:
         dd:c5:46:1d:8a:8e:09:3a:4f:a6:2e:f5:55:26:58:c5:ce:44:
         ea:50:8e:18:b0:cd:12:e9:45:d4:d9:8a:40:d8:23:f5:11:2d:
         8e:0d:4a:ca:04:b3:f4:2a:51:0f:43:fd:f8:75:67:ea:97:87:
         37:7f:3e:e3:2a:22:19:df:1c:6f:33:65:8b:d9:2d:da:f4:28:
         ee:d1:96:02:e2:b2:66:d0:93:7c:c1:4e:2c:49:fe:12:6d:14:
         fb:03:71:de:93:c1:c8:fc:b5:27:a3:5f:9e:19:9d:fc:02:12:
         db:3f:f8:2b:01:51:08:7e:0e:50:b4:05:76:1d:1b:6f:09:e4:
         ba:63:2f:5d:2b:28:c4:97:19:a3:e2:01:1e:05:72:77:ed:ca:
         dd:37:44:04:52:e8:1b:7d:07:dc:40:e8:82:16:5e:ab:9e:e6:
         a3:0b:11:09:8f:39:fe:09:fd:c9:4e:ae:ad:57:8c:6e:d1:dc:
         8a:9f:0c:be:8b:74:0e:3a:3f:62:ca:bf:2f:0a:c3:5b:4a:c8:
         9c:d8:15:f3:bd:ac:45:db:d7:ac:61:8d:3f:59:be:6a:c0:00:
         a7:1d:4d:b5:34:ed:88:4d:77:88:71:f8:d6:e0:ef:67:e0:72:
         9d:28:36:36:7e:fc:c0:db:c4:9d:32:00:8b:12:30:2e:3a:b5:
         87:11:f7:02:62:e4:30:e2:c4:62:ad:e1:0c:7d:b2:89:55:75:
         8f:c3:b5:7f:e3:d4:48:5c:09:ce:6a:67:20:12:f0:68:0c:ba:
         ad:4c:25:8c:10:8e:ee:dd:e2:72:2e:87:13:fe:db:31:75:dc:
         9f:3f:26:32:b3:54:df:d3:4c:92:c9:08:34:3d:5a:bc:26:17:
         41:33:76:db:ce:79:7f:9d:b7:2d:e4:5f:c5:94:51:9c:01:bc:
         26:fa:fb:01:28:06:2b:13:7d:4a:3b:04:58:62:3a:ef:63:42:
         70:4e:dc:d8:7f:11:5a:96:fc:0a:93:d6:c0:20:3a:20:92:e7:
         c0:01:b8:a9:cb:13:8b:8c:41:ec:55:4b:9a:5c:9b:eb:71:16:
         01:ee:83:af:6a:e9:f0:66:30:9d:3f:61:1b:e5:b0:6c:ee:1c:
         14:2f:57:11:75:dd:2f:33
-----BEGIN CERTIFICATE-----
MIIElzCCAn+gAwIBAgICEAEwDQYJKoZIhvcNAQEFBQAwRTELMAkGA1UEBhMCQVUx
EzARBgNVBAgMClNvbWUtU3RhdGUxITAfBgNVBAoMGEludGVybmV0IFdpZGdpdHMg
UHR5IEx0ZDAeFw0xNDAzMTMwNTU3NTJaFw0xNTAzMTMwNTU3NTJaMFsxCzAJBgNV
BAYTAkFVMRMwEQYDVQQIDApTb21lLVN0YXRlMSEwHwYDVQQKDBhJbnRlcm5ldCBX
aWRnaXRzIFB0eSBMdGQxFDASBgNVBAMMC2V4YW1wbGUuY29tMIIBIjANBgkqhkiG
9w0BAQEFAAOCAQ8AMIIBCgKCAQEA2osuPhWbbOlpQ9Eh41gjUk9MXC3rQzIDUzaw
JvTiYv2si3wzvdmGSZTpqsHFm8EV3yrwAYCZjbva+QA/R/jr1SoIME1taC702QRj
ori/EvXeoNZI7TZaofdk5ugFeG3R8pEiQPI3Qv2Oj7TVNtqzip3/F2Vggr3OsKTC
M7HZMrpehs7SY7GvbEFnq6/+jI+AE0n2ilPO8pp7Uur867XcHdH/7qFyiNTKJUSz
Vt309lP8czVt6vZa36cfdLodwVl+wShK8KbzLuRO5vr32L45iiiCLf5Q1JiejvQb
iT6Yj5PjZFDjl9OV1uzjl+noDUOXg/iaBOSOs/Ub9OP1qr7w1wIDAQABo3sweTAJ
BgNVHRMEAjAAMCwGCWCGSAGG+EIBDQQfFh1PcGVuU1NMIEdlbmVyYXRlZCBDZXJ0
aWZpY2F0ZTAdBgNVHQ4EFgQUiy57xV962ctU0KYBYB/VGIZTbhgwHwYDVR0jBBgw
FoAUVNfei6XsyDkHVRjAltPR9mjqbFAwDQYJKoZIhvcNAQEFBQADggIBAJuOFC+M
Fs4Y4cni4ocpRx8yXfsjycfhfnOYRWj6NqCZwzreDpF5RiYQDE62yVIBVNaY5lp0
3i0nQw6yLLuoSgC2Jhhb1YhlcMbezGnHYDyggfXFVrOEry+3uN3FRh2Kjgk6T6Yu
9VUmWMXOROpQjhiwzRLpRdTZikDYI/URLY4NSsoEs/QqUQ9D/fh1Z+qXhzd/PuMq
IhnfHG8zZYvZLdr0KO7RlgLismbQk3zBTixJ/hJtFPsDcd6Twcj8tSejX54ZnfwC
Ets/+CsBUQh+DlC0BXYdG28J5LpjL10rKMSXGaPiAR4Fcnftyt03RARS6Bt9B9xA
6IIWXque5qMLEQmPOf4J/clOrq1XjG7R3IqfDL6LdA46P2LKvy8Kw1tKyJzYFfO9
rEXb16xhjT9ZvmrAAKcdTbU07YhNd4hx+Nbg72fgcp0oNjZ+/MDbxJ0yAIsSMC46
tYcR9wJi5DDixGKt4Qx9solVdY/DtX/j1EhcCc5qZyAS8GgMuq1MJYwQju7d4nIu
hxP+2zF13J8/JjKzVN/TTJLJCDQ9WrwmF0EzdtvOeX+dty3kX8WUUZwBvCb6+wEo
BisTfUo7BFhiOu9jQnBO3Nh/EVqW/AqT1sAgOiCS58ABuKnLE4uMQexVS5pcm+tx
FgHug69q6fBmMJ0/YRvlsGzuHBQvVxF13S8z
-----END CERTIFICATE-----
