Certificate:
    Data:
        Version: 3 (0x2)
        Serial Number: 4096 (0x1000)
        Signature Algorithm: sha1WithRSAEncryption
        Issuer: C=us, ST=ca, L=mv, O=m2, OU=m2 test, CN=m2 test name/emailAddress=zup@nuch.com
        Validity
            Not Before: Feb 18 22:53:17 2013 GMT
            Not After : Feb 18 22:53:17 2014 GMT
        Subject: C=us, ST=ca, O=m2, OU=m2 cert, CN=m2 cert name/emailAddress=cert@nuch.com
        Subject Public Key Info:
            Public Key Algorithm: rsaEncryption
            RSA Public Key: (2048 bit)
                Modulus (2048 bit):
                    00:c8:e8:2b:52:b5:b2:53:10:18:98:a0:af:79:09:
                    40:e6:77:ef:56:c5:4e:ef:c8:f3:cf:d5:be:38:0f:
                    80:15:9a:8c:01:4f:13:98:bd:aa:0d:33:54:8d:7c:
                    42:34:59:4c:39:e1:95:0a:8a:34:c1:16:d0:a2:49:
                    2b:a1:80:f6:0f:8c:2e:93:e4:93:ce:2f:e2:c0:71:
                    f0:4c:ed:37:9f:3b:0c:21:79:c4:77:ad:a3:29:2b:
                    29:50:39:dc:42:b8:44:94:e8:2c:6c:44:ed:e7:49:
                    b2:bd:35:1c:27:77:29:5d:04:36:da:06:da:b1:97:
                    be:b0:5b:08:e2:f7:56:34:d6:23:4d:9a:13:10:ef:
                    26:75:35:25:e7:8d:82:08:82:f3:9d:f1:a8:ff:13:
                    a2:de:d6:db:e1:74:13:8d:d8:d8:65:17:a0:d4:07:
                    70:78:1c:ec:9b:94:77:3e:88:0a:e7:75:d4:8f:84:
                    7c:80:4a:95:68:28:44:5c:ed:a5:d3:7b:29:11:2e:
                    49:ae:1c:eb:54:b3:55:16:4c:78:b2:6e:80:7e:57:
                    54:a6:5a:73:ea:62:60:b3:1e:07:c3:8e:82:dd:83:
                    24:20:22:c6:5d:1e:36:67:46:61:59:5d:72:c4:60:
                    0b:2b:57:b0:04:bd:72:85:21:f2:77:39:0b:0e:a9:
                    87:27
                Exponent: 65537 (0x10001)
        X509v3 extensions:
            X509v3 Basic Constraints: 
                CA:FALSE
            Netscape Comment: 
                OpenSSL Generated Certificate
            X509v3 Subject Key Identifier: 
                CB:41:7C:8C:E3:18:EC:15:47:BA:6F:B2:AB:19:D8:7D:7C:96:AB:09
            X509v3 Authority Key Identifier: 
                keyid:E4:48:39:5F:9E:0E:5F:9D:E2:F8:F2:83:A0:DC:5F:A8:81:16:97:20

    Signature Algorithm: sha1WithRSAEncryption
        b6:1a:f0:d0:92:63:5e:43:48:f1:82:2c:7b:2c:93:97:b4:8e:
        1e:93:15:9b:0b:57:9a:91:ec:16:ad:05:d2:00:b4:a0:c6:e1:
        ff:5e:9a:0e:a1:1e:05:32:74:c7:d6:3e:11:2c:33:6c:24:5a:
        7c:a5:66:30:15:c1:95:ac:fa:7b:bf:83:06:05:2f:97:5a:f8:
        da:b9:21:80:c8:73:c8:2e:d4:08:07:ff:1a:39:18:c4:1d:f5:
        36:68:e6:02:f8:06:63:61:49:85:60:b8:4a:ad:e1:62:13:e8:
        6f:99:6b:5b:10:f3:f0:bf:16:ab:13:07:72:7e:7c:13:d5:88:
        a2:46
-----BEGIN CERTIFICATE-----
MIIDXjCCAsegAwIBAgICEAAwDQYJKoZIhvcNAQEFBQAwejELMAkGA1UEBhMCdXMx
CzAJBgNVBAgTAmNhMQswCQYDVQQHEwJtdjELMAkGA1UEChMCbTIxEDAOBgNVBAsT
B20yIHRlc3QxFTATBgNVBAMTDG0yIHRlc3QgbmFtZTEbMBkGCSqGSIb3DQEJARYM
enVwQG51Y2guY29tMB4XDTEzMDIxODIyNTMxN1oXDTE0MDIxODIyNTMxN1owbjEL
MAkGA1UEBhMCdXMxCzAJBgNVBAgTAmNhMQswCQYDVQQKEwJtMjEQMA4GA1UECxMH
bTIgY2VydDEVMBMGA1UEAxMMbTIgY2VydCBuYW1lMRwwGgYJKoZIhvcNAQkBFg1j
ZXJ0QG51Y2guY29tMIIBIjANBgkqhkiG9w0BAQEFAAOCAQ8AMIIBCgKCAQEAyOgr
UrWyUxAYmKCveQlA5nfvVsVO78jzz9W+OA+AFZqMAU8TmL2qDTNUjXxCNFlMOeGV
Coo0wRbQokkroYD2D4wuk+STzi/iwHHwTO03nzsMIXnEd62jKSspUDncQrhElOgs
bETt50myvTUcJ3cpXQQ22gbasZe+sFsI4vdWNNYjTZoTEO8mdTUl542CCILznfGo
/xOi3tbb4XQTjdjYZReg1AdweBzsm5R3PogK53XUj4R8gEqVaChEXO2l03spES5J
rhzrVLNVFkx4sm6AfldUplpz6mJgsx4Hw46C3YMkICLGXR42Z0ZhWV1yxGALK1ew
BL1yhSHydzkLDqmHJwIDAQABo3sweTAJBgNVHRMEAjAAMCwGCWCGSAGG+EIBDQQf
Fh1PcGVuU1NMIEdlbmVyYXRlZCBDZXJ0aWZpY2F0ZTAdBgNVHQ4EFgQUy0F8jOMY
7BVHum+yqxnYfXyWqwkwHwYDVR0jBBgwFoAU5Eg5X54OX53i+PKDoNxfqIEWlyAw
DQYJKoZIhvcNAQEFBQADgYEAthrw0JJjXkNI8YIseyyTl7SOHpMVmwtXmpHsFq0F
0gC0oMbh/16aDqEeBTJ0x9Y+ESwzbCRafKVmMBXBlaz6e7+DBgUvl1r42rkhgMhz
yC7UCAf/GjkYxB31NmjmAvgGY2FJhWC4Sq3hYhPob5lrWxDz8L8WqxMHcn58E9WI
okY=
-----END CERTIFICATE-----
