Certificate:
    Data:
        Version: 1 (0x0)
        Serial Number: 4100 (0x1004)
    Signature Algorithm: md5WithRSAEncryption
        Issuer: C=AU, ST=Some-State, O=Internet Widgits Pty Ltd, CN=mongrel2
        Validity
            Not Before: Mar 16 10:42:04 2015 GMT
            Not After : Mar 15 10:42:04 2025 GMT
        Subject: C=AU, ST=Some-State, O=Internet Widgits Pty Ltd, CN=m2
        Subject Public Key Info:
            Public Key Algorithm: rsaEncryption
                Public-Key: (4096 bit)
                Modulus:
                    00:e0:5b:42:a8:e3:fe:91:55:15:2e:d0:48:c3:48:
                    e2:e8:c8:a1:9b:69:81:e2:08:15:9d:cc:69:ea:d8:
                    56:ab:7c:e5:db:ed:56:85:c5:2a:93:3e:67:e2:6f:
                    ad:00:38:61:20:d3:b4:9d:dc:6c:72:30:87:25:99:
                    9d:24:c3:ee:27:71:44:d2:a0:d9:9e:78:cd:f0:8c:
                    de:8a:73:8f:77:c7:41:e9:e6:d7:af:f5:91:c6:0b:
                    6d:58:7b:4b:d2:bc:82:d4:da:60:63:4b:c4:6d:e9:
                    9c:a0:38:42:64:ca:d2:4a:10:fc:cd:1d:35:f2:68:
                    0e:df:b8:20:1d:a0:97:57:61:4b:52:1a:6f:e2:a2:
                    0c:45:27:d6:14:9d:43:4a:7f:bf:a2:d0:96:b7:26:
                    88:d3:df:30:5c:b6:7e:60:ad:dd:9b:a2:14:e2:12:
                    bc:82:e8:6a:8b:f1:fc:a7:c1:e3:0a:d9:ae:15:0f:
                    d7:b2:cd:fa:ad:2b:8d:e3:7b:fe:e3:51:e7:07:d6:
                    d4:8a:26:fb:6b:61:97:0f:47:34:1d:50:c6:62:98:
                    e9:a3:aa:3d:ef:6b:fd:62:c1:90:33:59:42:2f:f6:
                    74:c5:5f:93:b6:7b:42:8f:66:62:6c:fb:d7:ea:72:
                    2a:aa:46:da:a3:a9:a2:b4:e8:ee:37:ff:4b:2a:c5:
                    cb:82:23:f6:48:8e:b1:fd:8f:fe:16:f8:c5:e0:c5:
                    97:df:80:ed:46:f3:1f:49:6c:ac:20:78:40:a7:c8:
                    e7:d5:b6:55:92:19:1a:ac:2f:21:fe:e0:3f:a6:69:
                    34:fd:17:26:b1:72:9a:b8:fb:7d:ab:8f:5b:ac:5a:
                    a7:ed:58:7c:e6:a8:1d:51:eb:a1:f2:e2:34:e0:df:
                    f2:7a:0a:3f:d3:12:2e:1a:3c:be:00:d6:25:6c:1c:
                    56:39:9a:af:ea:24:f1:09:9f:56:30:cf:80:93:20:
                    c0:cc:34:1e:81:13:6a:06:55:b1:a1:6c:f0:a2:6c:
                    01:99:83:c6:39:ff:2f:ea:e1:b2:af:44:e4:79:1e:
                    d0:e2:34:1b:6d:7c:ae:66:8f:55:37:63:3c:05:1b:
                    f2:9b:7c:61:09:19:dd:21:42:15:52:8a:a2:7c:80:
                    7e:e6:cb:37:98:8a:f5:86:28:23:35:d9:00:3d:03:
                    c9:59:f1:19:e5:60:9b:30:02:d4:3b:4e:c3:d5:48:
                    81:41:80:b1:cd:46:32:89:c9:37:49:03:3d:00:e1:
                    0b:30:83:fb:8a:1a:28:1e:4a:1a:a8:1a:e7:72:1b:
                    0e:8a:c0:2a:b6:fa:19:c2:9d:87:58:9d:1f:e8:e5:
                    62:5a:8b:fb:f2:5f:87:c5:10:79:ff:6a:81:1d:a6:
                    7b:22:11
                Exponent: 65537 (0x10001)
    Signature Algorithm: md5WithRSAEncryption
         60:4e:b2:a7:69:dc:fe:be:b3:62:9f:a2:17:2b:cc:a5:ce:96:
         ed:ff:02:bc:67:89:56:27:34:5e:68:45:45:8c:59:7a:ad:9f:
         ff:71:08:27:cb:43:16:a5:55:ca:10:6c:23:af:34:9f:98:4e:
         f0:25:7a:a6:ce:9c:29:4a:29:2e:16:bc:7d:aa:f0:57:57:e1:
         d1:cc:ee:eb:74:62:ea:01:4e:b7:a0:7f:eb:cf:35:db:f6:23:
         d2:42:72:20:7f:14:e8:cc:e4:5d:2e:d7:e3:3b:60:b9:2e:31:
         b1:1c:2a:86:bc:e6:85:22:ee:c6:fe:ba:91:cf:f9:80:1d:b9:
         cf:bb:ed:5b:e1:9f:bc:95:2f:dc:69:b2:14:6c:44:20:7d:dd:
         10:aa:88:82:e9:dd:96:cb:5b:b3:a9:1e:65:61:11:ba:be:85:
         70:2b:ca:a1:26:97:73:01:d6:b6:7a:b5:c6:72:ec:3a:f2:48:
         1e:f8:97:14:33:40:2d:a7:1b:88:8b:6c:94:64:57:3d:4b:e8:
         c3:af:53:46:49:db:14:73:d5:ef:e9:01:01:2e:79:3a:68:0e:
         84:07:45:e6:93:04:29:29:75:98:e5:50:3f:e3:f1:95:6f:4b:
         35:5c:9a:ce:07:b4:20:65:90:9f:a5:76:19:e7:fc:fe:5e:df:
         1f:88:c8:d1:1d:38:fc:c9:31:2a:a5:67:9f:30:2f:c4:48:42:
         c1:1f:1e:84:b1:28:73:01:91:dd:20:d0:ab:c4:4a:61:e3:0f:
         46:bb:f2:3d:91:58:d8:d8:3d:fe:ee:61:cd:3e:19:79:2d:c5:
         aa:b2:e2:2a:28:9d:39:f6:cf:fe:a0:38:c5:7c:4a:80:55:78:
         71:8f:f0:11:22:c9:bd:1f:70:76:a1:9d:9e:fd:3f:79:96:ba:
         6f:cc:17:92:8c:d3:ca:c5:cc:9e:db:47:3b:44:31:46:90:59:
         f2:d1:8a:7a:f0:31:ba:18:14:f1:ce:54:35:fd:df:5f:60:8b:
         4e:99:cd:49:45:13:f0:5e:94:e8:38:75:3c:99:b4:fd:04:50:
         11:1b:fa:47:82:d8:ba:da:3f:09:f2:61:07:16:3b:e4:d4:46:
         53:27:7b:0e:c0:e0:62:bd:42:0b:9e:d3:a8:0d:d5:85:98:37:
         67:79:d7:0e:ef:8f:3e:bc:4e:ca:f0:d6:04:44:99:14:5d:9a:
         00:06:74:21:f5:5e:e3:7c:9e:36:55:2f:07:e6:a2:39:76:50:
         42:ba:1f:da:6f:a8:f7:00:8c:d7:ae:8c:be:e3:a9:3b:d1:25:
         e5:fa:57:32:a5:a6:1a:9a:4d:57:66:7e:38:7a:55:0b:90:36:
         d0:24:41:b8:b7:78:2a:1c
-----BEGIN CERTIFICATE-----
MIIFHzCCAwcCAhAEMA0GCSqGSIb3DQEBBAUAMFgxCzAJBgNVBAYTAkFVMRMwEQYD
VQQIDApTb21lLVN0YXRlMSEwHwYDVQQKDBhJbnRlcm5ldCBXaWRnaXRzIFB0eSBM
dGQxETAPBgNVBAMMCG1vbmdyZWwyMB4XDTE1MDMxNjEwNDIwNFoXDTI1MDMxNTEw
NDIwNFowUjELMAkGA1UEBhMCQVUxEzARBgNVBAgMClNvbWUtU3RhdGUxITAfBgNV
BAoMGEludGVybmV0IFdpZGdpdHMgUHR5IEx0ZDELMAkGA1UEAwwCbTIwggIiMA0G
CSqGSIb3DQEBAQUAA4ICDwAwggIKAoICAQDgW0Ko4/6RVRUu0EjDSOLoyKGbaYHi
CBWdzGnq2FarfOXb7VaFxSqTPmfib60AOGEg07Sd3GxyMIclmZ0kw+4ncUTSoNme
eM3wjN6Kc493x0Hp5tev9ZHGC21Ye0vSvILU2mBjS8Rt6ZygOEJkytJKEPzNHTXy
aA7fuCAdoJdXYUtSGm/iogxFJ9YUnUNKf7+i0Ja3JojT3zBctn5grd2bohTiEryC
6GqL8fynweMK2a4VD9eyzfqtK43je/7jUecH1tSKJvtrYZcPRzQdUMZimOmjqj3v
a/1iwZAzWUIv9nTFX5O2e0KPZmJs+9fqciqqRtqjqaK06O43/0sqxcuCI/ZIjrH9
j/4W+MXgxZffgO1G8x9JbKwgeECnyOfVtlWSGRqsLyH+4D+maTT9Fyaxcpq4+32r
j1usWqftWHzmqB1R66Hy4jTg3/J6Cj/TEi4aPL4A1iVsHFY5mq/qJPEJn1Ywz4CT
IMDMNB6BE2oGVbGhbPCibAGZg8Y5/y/q4bKvROR5HtDiNBttfK5mj1U3YzwFG/Kb
fGEJGd0hQhVSiqJ8gH7myzeYivWGKCM12QA9A8lZ8RnlYJswAtQ7TsPVSIFBgLHN
RjKJyTdJAz0A4Qswg/uKGigeShqoGudyGw6KwCq2+hnCnYdYnR/o5WJai/vyX4fF
EHn/aoEdpnsiEQIDAQABMA0GCSqGSIb3DQEBBAUAA4ICAQBgTrKnadz+vrNin6IX
K8ylzpbt/wK8Z4lWJzReaEVFjFl6rZ//cQgny0MWpVXKEGwjrzSfmE7wJXqmzpwp
SikuFrx9qvBXV+HRzO7rdGLqAU63oH/rzzXb9iPSQnIgfxTozORdLtfjO2C5LjGx
HCqGvOaFIu7G/rqRz/mAHbnPu+1b4Z+8lS/cabIUbEQgfd0QqoiC6d2Wy1uzqR5l
YRG6voVwK8qhJpdzAda2erXGcuw68kge+JcUM0AtpxuIi2yUZFc9S+jDr1NGSdsU
c9Xv6QEBLnk6aA6EB0XmkwQpKXWY5VA/4/GVb0s1XJrOB7QgZZCfpXYZ5/z+Xt8f
iMjRHTj8yTEqpWefMC/ESELBHx6EsShzAZHdINCrxEph4w9Gu/I9kVjY2D3+7mHN
Phl5LcWqsuIqKJ059s/+oDjFfEqAVXhxj/ARIsm9H3B2oZ2e/T95lrpvzBeSjNPK
xcye20c7RDFGkFny0Yp68DG6GBTxzlQ1/d9fYItOmc1JRRPwXpToOHU8mbT9BFAR
G/pHgti62j8J8mEHFjvk1EZTJ3sOwOBivUILntOoDdWFmDdnedcO748+vE7K8NYE
RJkUXZoABnQh9V7jfJ42VS8H5qI5dlBCuh/ab6j3AIzXroy+46k70SXl+lcypaYa
mk1XZn44elULkDbQJEG4t3gqHA==
-----END CERTIFICATE-----
