Certificate:
    Data:
        Version: 1 (0x0)
        Serial Number: 4099 (0x1003)
    Signature Algorithm: md5WithRSAEncryption
        Issuer: C=AU, ST=Some-State, O=Internet Widgits Pty Ltd, CN=aidenkeating
        Validity
            Not Before: Mar 16 10:22:20 2015 GMT
            Not After : Mar 15 10:22:20 2016 GMT
        Subject: C=AU, ST=Some-State, O=Internet Widgits Pty Ltd, CN=akeating
        Subject Public Key Info:
            Public Key Algorithm: rsaEncryption
                Public-Key: (4096 bit)
                Modulus:
                    00:e0:5b:42:a8:e3:fe:91:55:15:2e:d0:48:c3:48:
                    e2:e8:c8:a1:9b:69:81:e2:08:15:9d:cc:69:ea:d8:
                    56:ab:7c:e5:db:ed:56:85:c5:2a:93:3e:67:e2:6f:
                    ad:00:38:61:20:d3:b4:9d:dc:6c:72:30:87:25:99:
                    9d:24:c3:ee:27:71:44:d2:a0:d9:9e:78:cd:f0:8c:
                    de:8a:73:8f:77:c7:41:e9:e6:d7:af:f5:91:c6:0b:
                    6d:58:7b:4b:d2:bc:82:d4:da:60:63:4b:c4:6d:e9:
                    9c:a0:38:42:64:ca:d2:4a:10:fc:cd:1d:35:f2:68:
                    0e:df:b8:20:1d:a0:97:57:61:4b:52:1a:6f:e2:a2:
                    0c:45:27:d6:14:9d:43:4a:7f:bf:a2:d0:96:b7:26:
                    88:d3:df:30:5c:b6:7e:60:ad:dd:9b:a2:14:e2:12:
                    bc:82:e8:6a:8b:f1:fc:a7:c1:e3:0a:d9:ae:15:0f:
                    d7:b2:cd:fa:ad:2b:8d:e3:7b:fe:e3:51:e7:07:d6:
                    d4:8a:26:fb:6b:61:97:0f:47:34:1d:50:c6:62:98:
                    e9:a3:aa:3d:ef:6b:fd:62:c1:90:33:59:42:2f:f6:
                    74:c5:5f:93:b6:7b:42:8f:66:62:6c:fb:d7:ea:72:
                    2a:aa:46:da:a3:a9:a2:b4:e8:ee:37:ff:4b:2a:c5:
                    cb:82:23:f6:48:8e:b1:fd:8f:fe:16:f8:c5:e0:c5:
                    97:df:80:ed:46:f3:1f:49:6c:ac:20:78:40:a7:c8:
                    e7:d5:b6:55:92:19:1a:ac:2f:21:fe:e0:3f:a6:69:
                    34:fd:17:26:b1:72:9a:b8:fb:7d:ab:8f:5b:ac:5a:
                    a7:ed:58:7c:e6:a8:1d:51:eb:a1:f2:e2:34:e0:df:
                    f2:7a:0a:3f:d3:12:2e:1a:3c:be:00:d6:25:6c:1c:
                    56:39:9a:af:ea:24:f1:09:9f:56:30:cf:80:93:20:
                    c0:cc:34:1e:81:13:6a:06:55:b1:a1:6c:f0:a2:6c:
                    01:99:83:c6:39:ff:2f:ea:e1:b2:af:44:e4:79:1e:
                    d0:e2:34:1b:6d:7c:ae:66:8f:55:37:63:3c:05:1b:
                    f2:9b:7c:61:09:19:dd:21:42:15:52:8a:a2:7c:80:
                    7e:e6:cb:37:98:8a:f5:86:28:23:35:d9:00:3d:03:
                    c9:59:f1:19:e5:60:9b:30:02:d4:3b:4e:c3:d5:48:
                    81:41:80:b1:cd:46:32:89:c9:37:49:03:3d:00:e1:
                    0b:30:83:fb:8a:1a:28:1e:4a:1a:a8:1a:e7:72:1b:
                    0e:8a:c0:2a:b6:fa:19:c2:9d:87:58:9d:1f:e8:e5:
                    62:5a:8b:fb:f2:5f:87:c5:10:79:ff:6a:81:1d:a6:
                    7b:22:11
                Exponent: 65537 (0x10001)
    Signature Algorithm: md5WithRSAEncryption
         96:6d:40:76:cc:59:be:fe:51:f5:5a:20:f8:e8:f7:3c:28:8e:
         65:09:a5:0a:38:8a:9f:8f:6c:5e:c8:11:3b:82:71:95:05:2b:
         ab:65:fe:90:d1:04:73:1b:e9:4d:cd:35:f3:1a:96:86:1b:bc:
         dc:5f:05:70:9a:a8:e5:d5:86:c8:f9:13:93:75:d6:92:01:67:
         cd:f3:da:5e:9c:b1:b7:0b:ec:1c:61:a0:79:52:a8:4b:6c:eb:
         41:3e:cf:c0:3f:24:9c:e7:80:c9:6d:b2:e0:94:cf:3b:29:82:
         67:74:cb:fa:94:11:0b:9b:95:30:62:b8:92:c9:10:83:55:ec:
         8c:a6:93:1a:83:ab:8f:ad:a3:2f:a3:5e:9a:ad:fd:0d:a4:87:
         c2:d5:13:bc:99:36:0f:42:e1:84:30:3b:bc:e0:f3:db:da:79:
         e7:eb:ea:79:41:2a:a3:18:f3:95:80:8d:20:4e:90:3d:b4:58:
         44:67:42:ee:7c:8d:b9:44:25:3a:18:d1:de:57:b4:70:3f:c6:
         76:84:52:1d:4d:a7:1e:a8:92:87:54:50:b1:01:f1:97:dc:70:
         b1:db:98:42:21:70:82:da:98:f5:e5:30:fb:b4:13:5a:23:81:
         63:d2:83:6d:48:5b:94:1e:52:02:a8:34:05:a8:66:d2:d1:09:
         39:d4:a4:e9:85:0c:38:42:72:e5:2f:30:09:76:6e:f1:79:06:
         36:5d:11:42:46:3f:e2:90:8d:2d:45:d8:d8:86:37:d7:3e:5b:
         47:12:36:99:dc:4e:f1:23:40:5e:ea:59:d7:dc:4e:07:20:97:
         79:28:9f:1a:95:cd:22:c4:bd:dc:c8:14:6f:a6:35:43:06:1b:
         4f:4e:aa:da:84:69:84:c5:8e:6c:43:5f:8b:b7:cb:b0:9b:02:
         56:e0:ce:96:ea:51:e8:9c:cb:7e:3f:df:8d:2f:60:a1:f5:33:
         8b:68:71:58:73:4c:ae:6c:05:84:13:ee:3c:c5:1d:90:46:ff:
         3c:2d:c7:65:e9:50:da:be:db:ca:83:7f:ab:2e:09:29:43:35:
         e4:5d:7b:3f:de:d7:eb:d9:df:5e:bc:cf:86:d2:3c:55:18:e2:
         55:2f:af:56:ef:8c:00:5d:f4:8d:1f:89:2a:34:6f:08:27:8e:
         cd:ac:df:3a:a2:90:8d:59:a5:a7:cf:0b:34:4e:22:fe:4e:08:
         78:df:37:84:f6:47:6d:d6:41:3c:af:c7:7c:64:92:b1:48:2f:
         1e:10:04:56:7d:c2:82:2f:92:bf:62:b6:5e:c7:8b:62:ff:02:
         af:48:b8:d5:b9:40:da:91:dd:f9:1a:98:35:aa:1c:ab:2a:06:
         0a:22:3c:ef:91:31:1b:7b
-----BEGIN CERTIFICATE-----
MIIFKTCCAxECAhADMA0GCSqGSIb3DQEBBAUAMFwxCzAJBgNVBAYTAkFVMRMwEQYD
VQQIDApTb21lLVN0YXRlMSEwHwYDVQQKDBhJbnRlcm5ldCBXaWRnaXRzIFB0eSBM
dGQxFTATBgNVBAMMDGFpZGVua2VhdGluZzAeFw0xNTAzMTYxMDIyMjBaFw0xNjAz
MTUxMDIyMjBaMFgxCzAJBgNVBAYTAkFVMRMwEQYDVQQIDApTb21lLVN0YXRlMSEw
HwYDVQQKDBhJbnRlcm5ldCBXaWRnaXRzIFB0eSBMdGQxETAPBgNVBAMMCGFrZWF0
aW5nMIICIjANBgkqhkiG9w0BAQEFAAOCAg8AMIICCgKCAgEA4FtCqOP+kVUVLtBI
w0ji6Mihm2mB4ggVncxp6thWq3zl2+1WhcUqkz5n4m+tADhhINO0ndxscjCHJZmd
JMPuJ3FE0qDZnnjN8IzeinOPd8dB6ebXr/WRxgttWHtL0ryC1NpgY0vEbemcoDhC
ZMrSShD8zR018mgO37ggHaCXV2FLUhpv4qIMRSfWFJ1DSn+/otCWtyaI098wXLZ+
YK3dm6IU4hK8guhqi/H8p8HjCtmuFQ/Xss36rSuN43v+41HnB9bUiib7a2GXD0c0
HVDGYpjpo6o972v9YsGQM1lCL/Z0xV+TtntCj2ZibPvX6nIqqkbao6mitOjuN/9L
KsXLgiP2SI6x/Y/+FvjF4MWX34DtRvMfSWysIHhAp8jn1bZVkhkarC8h/uA/pmk0
/RcmsXKauPt9q49brFqn7Vh85qgdUeuh8uI04N/yego/0xIuGjy+ANYlbBxWOZqv
6iTxCZ9WMM+AkyDAzDQegRNqBlWxoWzwomwBmYPGOf8v6uGyr0TkeR7Q4jQbbXyu
Zo9VN2M8BRvym3xhCRndIUIVUoqifIB+5ss3mIr1higjNdkAPQPJWfEZ5WCbMALU
O07D1UiBQYCxzUYyick3SQM9AOELMIP7ihooHkoaqBrnchsOisAqtvoZwp2HWJ0f
6OViWov78l+HxRB5/2qBHaZ7IhECAwEAATANBgkqhkiG9w0BAQQFAAOCAgEAlm1A
dsxZvv5R9Vog+Oj3PCiOZQmlCjiKn49sXsgRO4JxlQUrq2X+kNEEcxvpTc018xqW
hhu83F8FcJqo5dWGyPkTk3XWkgFnzfPaXpyxtwvsHGGgeVKoS2zrQT7PwD8knOeA
yW2y4JTPOymCZ3TL+pQRC5uVMGK4kskQg1XsjKaTGoOrj62jL6Nemq39DaSHwtUT
vJk2D0LhhDA7vODz29p55+vqeUEqoxjzlYCNIE6QPbRYRGdC7nyNuUQlOhjR3le0
cD/GdoRSHU2nHqiSh1RQsQHxl9xwsduYQiFwgtqY9eUw+7QTWiOBY9KDbUhblB5S
Aqg0Bahm0tEJOdSk6YUMOEJy5S8wCXZu8XkGNl0RQkY/4pCNLUXY2IY31z5bRxI2
mdxO8SNAXupZ19xOByCXeSifGpXNIsS93MgUb6Y1QwYbT06q2oRphMWObENfi7fL
sJsCVuDOlupR6JzLfj/fjS9gofUzi2hxWHNMrmwFhBPuPMUdkEb/PC3HZelQ2r7b
yoN/qy4JKUM15F17P97X69nfXrzPhtI8VRjiVS+vVu+MAF30jR+JKjRvCCeOzazf
OqKQjVmlp88LNE4i/k4IeN83hPZHbdZBPK/HfGSSsUgvHhAEVn3Cgi+Sv2K2XseL
Yv8Cr0i41blA2pHd+RqYNaocqyoGCiI875ExG3s=
-----END CERTIFICATE-----
