Certificate:
    Data:
        Version: 3 (0x2)
        Serial Number: 4096 (0x1000)
    Signature Algorithm: sha1WithRSAEncryption
        Issuer: C=US, ST=HI, O=World Wide Web Pty Ltd
        Validity
            Not Before: Mar 26 23:57:16 2014 GMT
            Not After : Mar 23 23:57:16 2024 GMT
        Subject: C=US, ST=HI, O=World Wide Web Pty Ltd, CN=www
        Subject Public Key Info:
            Public Key Algorithm: rsaEncryption
                Public-Key: (2048 bit)
                Modulus:
                    00:d6:24:ee:9b:bb:de:96:8e:fc:c9:e2:e7:a3:0c:
                    5f:20:5f:5c:7e:28:60:3b:8e:14:28:a1:6f:31:0b:
                    73:f7:f9:1e:6c:c3:4b:c9:d5:da:20:4b:38:37:1c:
                    a9:14:8f:53:57:37:c3:d0:26:bc:bb:9e:a7:c9:dd:
                    e3:e5:70:98:84:21:3c:ff:3a:2f:65:55:a3:3d:11:
                    00:41:b8:6f:d7:43:53:5e:48:d8:5a:1d:30:73:55:
                    5f:6e:62:d9:0e:bb:df:2e:3d:f9:4a:52:50:3e:dd:
                    34:48:3d:f8:dd:69:29:bc:0b:6c:ad:1a:57:5c:66:
                    07:ce:c6:02:00:57:24:a1:e2:8a:de:b2:c2:38:aa:
                    95:b5:64:4d:a0:78:bb:57:b7:21:d7:27:e4:27:63:
                    b0:cb:e0:32:1c:8f:2a:fa:88:48:a7:20:5e:4c:75:
                    17:3d:6e:87:fa:f7:cf:35:03:e0:04:60:11:3c:e4:
                    d9:e3:82:fd:cf:63:b0:57:ed:d9:d9:f6:ab:91:dd:
                    fc:42:50:67:b9:5b:a5:68:bb:14:f8:6e:0f:14:3b:
                    c4:19:28:ba:b6:47:d8:d9:46:5f:ef:53:af:ed:ec:
                    b6:ae:c6:41:cf:96:84:43:03:79:fe:fd:36:b2:51:
                    e8:ce:d2:d3:c0:5e:8c:eb:cd:c0:ad:ff:80:61:53:
                    5d:8f
                Exponent: 65537 (0x10001)
        X509v3 extensions:
            X509v3 Basic Constraints: 
                CA:FALSE
            Netscape Comment: 
                OpenSSL Generated Certificate
            X509v3 Subject Key Identifier: 
                3B:51:01:0C:E4:D5:7D:C7:71:4A:1C:48:3A:B0:5D:CD:D4:33:47:CE
            X509v3 Authority Key Identifier: 
                keyid:80:4D:84:64:94:7A:10:CA:90:A4:DC:BD:D6:41:05:A4:7C:D2:B1:7F

    Signature Algorithm: sha1WithRSAEncryption
         20:cd:8e:cf:1d:42:d2:b6:1d:44:bb:7d:4b:ae:79:85:9d:83:
         be:46:b7:fd:a0:02:ca:0d:25:1f:3c:fe:9c:89:d4:15:a5:f2:
         3e:ba:f4:ed:3d:43:0f:16:f9:88:d4:56:bf:db:b2:6f:db:4b:
         1f:86:fb:4d:54:4c:24:2d:54:38:3a:77:4b:74:c5:ee:0a:49:
         db:ea:69:f1:ba:f8:70:e2:73:c4:8e:59:30:08:4f:b9:08:27:
         1a:fa:14:5a:bb:71:ea:a2:c7:df:a6:c0:2c:81:ce:86:f0:50:
         3f:2f:a4:96:df:db:52:7f:e9:e6:95:4a:5b:c5:f1:4c:1c:d5:
         7a:7a:24:31:5e:f6:15:bb:47:e0:1c:8a:e1:3e:f2:ef:a5:65:
         a9:9d:2a:49:22:53:ea:bf:c0:a8:9b:a7:4a:cb:c3:b3:fa:b6:
         a7:df:75:8d:f7:2d:2f:39:ae:2e:64:e9:d6:ca:e4:e7:a0:8e:
         78:19:67:88:be:83:eb:a3:87:97:80:9f:69:c2:47:1e:52:cf:
         c1:4c:31:11:3e:99:d3:df:38:f7:e4:1d:7c:4f:96:0d:88:2c:
         80:dc:77:ec:28:d8:7d:eb:aa:ee:d1:21:2d:df:ef:74:a1:8f:
         3a:a7:6b:1b:18:9d:2f:26:df:a0:cf:a6:da:09:3d:ee:0f:9b:
         40:d9:3c:09
-----BEGIN CERTIFICATE-----
MIIDezCCAmOgAwIBAgICEAAwDQYJKoZIhvcNAQEFBQAwOzELMAkGA1UEBhMCVVMx
CzAJBgNVBAgMAkhJMR8wHQYDVQQKDBZXb3JsZCBXaWRlIFdlYiBQdHkgTHRkMB4X
DTE0MDMyNjIzNTcxNloXDTI0MDMyMzIzNTcxNlowSTELMAkGA1UEBhMCVVMxCzAJ
BgNVBAgMAkhJMR8wHQYDVQQKDBZXb3JsZCBXaWRlIFdlYiBQdHkgTHRkMQwwCgYD
VQQDDAN3d3cwggEiMA0GCSqGSIb3DQEBAQUAA4IBDwAwggEKAoIBAQDWJO6bu96W
jvzJ4uejDF8gX1x+KGA7jhQooW8xC3P3+R5sw0vJ1dogSzg3HKkUj1NXN8PQJry7
nqfJ3ePlcJiEITz/Oi9lVaM9EQBBuG/XQ1NeSNhaHTBzVV9uYtkOu98uPflKUlA+
3TRIPfjdaSm8C2ytGldcZgfOxgIAVySh4oressI4qpW1ZE2geLtXtyHXJ+QnY7DL
4DIcjyr6iEinIF5MdRc9bof69881A+AEYBE85Nnjgv3PY7BX7dnZ9quR3fxCUGe5
W6VouxT4bg8UO8QZKLq2R9jZRl/vU6/t7LauxkHPloRDA3n+/TayUejO0tPAXozr
zcCt/4BhU12PAgMBAAGjezB5MAkGA1UdEwQCMAAwLAYJYIZIAYb4QgENBB8WHU9w
ZW5TU0wgR2VuZXJhdGVkIENlcnRpZmljYXRlMB0GA1UdDgQWBBQ7UQEM5NV9x3FK
HEg6sF3N1DNHzjAfBgNVHSMEGDAWgBSATYRklHoQypCk3L3WQQWkfNKxfzANBgkq
hkiG9w0BAQUFAAOCAQEAIM2Ozx1C0rYdRLt9S655hZ2Dvka3/aACyg0lHzz+nInU
FaXyPrr07T1DDxb5iNRWv9uyb9tLH4b7TVRMJC1UODp3S3TF7gpJ2+pp8br4cOJz
xI5ZMAhPuQgnGvoUWrtx6qLH36bALIHOhvBQPy+klt/bUn/p5pVKW8XxTBzVenok
MV72FbtH4ByK4T7y76VlqZ0qSSJT6r/AqJunSsvDs/q2p991jfctLzmuLmTp1srk
56COeBlniL6D66OHl4CfacJHHlLPwUwxET6Z09849+QdfE+WDYgsgNx37CjYfeuq
7tEhLd/vdKGPOqdrGxidLybfoM+m2gk97g+bQNk8CQ==
-----END CERTIFICATE-----
