Certificate:
    Data:
        Version: 3 (0x2)
        Serial Number: 4098 (0x1002)
    Signature Algorithm: sha256WithRSAEncryption
        Issuer: C=AU, ST=Some-State, O=Internet Widgits Pty Ltd
        Validity
            Not Before: Jul  4 18:55:33 2018 GMT
            Not After : Jul  4 18:55:33 2019 GMT
        Subject: C=AU, ST=Some-State, O=Internet Widgits Pty Ltd, CN=foo
        Subject Public Key Info:
            Public Key Algorithm: rsaEncryption
                Public-Key: (2048 bit)
                Modulus:
                    00:c7:0a:99:bf:84:e5:64:5f:26:2e:2c:2d:55:9e:
                    5e:b1:e8:43:25:26:8c:fa:38:bc:b4:92:ee:03:a9:
                    a0:5e:de:5d:3e:0f:45:c2:79:81:44:4c:7e:ce:02:
                    c5:e0:63:6b:f6:3c:e3:cf:cd:6a:3c:18:2a:de:16:
                    bc:04:61:40:67:41:ed:a8:35:36:36:17:dd:56:fc:
                    e5:99:03:d5:e3:1a:a8:88:1b:dc:a1:85:98:d7:92:
                    aa:55:04:11:9c:6c:a7:65:62:fb:b2:a0:c4:ac:9e:
                    1d:7d:a9:e0:0e:2d:ba:8d:4c:42:c0:eb:ad:58:46:
                    77:70:cb:c6:71:dd:04:93:92:fd:7a:7a:15:1f:bd:
                    97:ab:0b:1b:a2:15:5d:d4:d2:d0:9c:9e:98:87:b2:
                    39:7a:4e:a6:b0:6c:22:45:89:d7:53:12:62:4f:c8:
                    64:db:50:1d:5a:10:b0:04:24:93:7d:e1:90:62:fe:
                    e3:23:6a:48:05:ec:8e:98:02:68:94:23:4f:d1:a2:
                    21:a4:af:03:12:29:14:ab:3c:2d:a6:3a:2f:40:b9:
                    20:7d:8d:0c:99:59:ac:cf:98:f6:5d:09:eb:16:77:
                    30:ff:fa:4f:43:8a:6f:81:a0:30:53:bc:13:d2:06:
                    4e:95:27:c4:b9:f6:8f:8a:2a:6e:25:db:59:a7:7b:
                    ed:f1
                Exponent: 65537 (0x10001)
        X509v3 extensions:
            X509v3 Basic Constraints: 
                CA:FALSE
            Netscape Comment: 
                OpenSSL Generated Certificate
            X509v3 Subject Key Identifier: 
                2F:15:63:8D:8D:51:65:A5:B1:36:84:BF:62:E8:57:03:E8:1D:C5:81
            X509v3 Authority Key Identifier: 
                keyid:39:9C:80:91:5C:51:A0:44:4D:B9:D1:96:6C:89:1C:0C:9C:FD:F4:F2

    Signature Algorithm: sha256WithRSAEncryption
         02:32:ac:03:09:e4:f5:a2:c7:c8:9f:eb:20:d9:a0:09:a1:5b:
         80:68:6c:61:1a:50:65:f1:43:92:28:ef:61:1d:5c:f5:38:a0:
         74:db:35:38:e5:b6:76:fd:4f:66:a9:66:f7:86:24:eb:03:8c:
         3e:a7:f7:31:99:12:ce:23:77:a3:f9:33:76:24:3e:cc:3b:1f:
         42:90:79:a9:d3:d0:0c:aa:c7:af:71:55:03:3e:02:58:7f:b3:
         22:3e:a5:e6:94:9b:b6:8f:80:69:1c:7b:95:63:87:88:84:39:
         d6:dd:37:18:ba:99:35:d5:b7:63:fc:2e:2f:70:1d:c4:4c:07:
         6d:bb:54:d0:83:63:1c:33:fc:04:97:cc:d0:ef:73:6e:48:ab:
         76:3b:2a:bb:c7:55:02:ff:8f:fe:46:c2:da:c8:3d:c7:e5:0f:
         95:51:8f:2a:c1:fc:86:f0:a7:e7:ae:44:99:ff:31:e4:a2:3b:
         5e:f4:b7:e4:72:cc:b5:3b:5c:85:d0:09:85:c8:e5:08:68:05:
         62:e6:f8:83:36:87:0a:ad:91:e1:9f:1c:43:1b:87:27:1d:cc:
         a6:76:28:f4:0c:48:5a:fc:d5:78:17:6f:b3:65:11:5f:e5:b9:
         aa:ac:5c:f2:b9:ce:55:39:b4:f5:49:1b:2f:bc:61:ac:f4:4b:
         b0:f3:6b:16
-----BEGIN CERTIFICATE-----
MIIDjzCCAnegAwIBAgICEAIwDQYJKoZIhvcNAQELBQAwRTELMAkGA1UEBhMCQVUx
EzARBgNVBAgMClNvbWUtU3RhdGUxITAfBgNVBAoMGEludGVybmV0IFdpZGdpdHMg
UHR5IEx0ZDAeFw0xODA3MDQxODU1MzNaFw0xOTA3MDQxODU1MzNaMFMxCzAJBgNV
BAYTAkFVMRMwEQYDVQQIDApTb21lLVN0YXRlMSEwHwYDVQQKDBhJbnRlcm5ldCBX
aWRnaXRzIFB0eSBMdGQxDDAKBgNVBAMMA2ZvbzCCASIwDQYJKoZIhvcNAQEBBQAD
ggEPADCCAQoCggEBAMcKmb+E5WRfJi4sLVWeXrHoQyUmjPo4vLSS7gOpoF7eXT4P
RcJ5gURMfs4CxeBja/Y848/NajwYKt4WvARhQGdB7ag1NjYX3Vb85ZkD1eMaqIgb
3KGFmNeSqlUEEZxsp2Vi+7KgxKyeHX2p4A4tuo1MQsDrrVhGd3DLxnHdBJOS/Xp6
FR+9l6sLG6IVXdTS0JyemIeyOXpOprBsIkWJ11MSYk/IZNtQHVoQsAQkk33hkGL+
4yNqSAXsjpgCaJQjT9GiIaSvAxIpFKs8LaY6L0C5IH2NDJlZrM+Y9l0J6xZ3MP/6
T0OKb4GgMFO8E9IGTpUnxLn2j4oqbiXbWad77fECAwEAAaN7MHkwCQYDVR0TBAIw
ADAsBglghkgBhvhCAQ0EHxYdT3BlblNTTCBHZW5lcmF0ZWQgQ2VydGlmaWNhdGUw
HQYDVR0OBBYEFC8VY42NUWWlsTaEv2LoVwPoHcWBMB8GA1UdIwQYMBaAFDmcgJFc
UaBETbnRlmyJHAyc/fTyMA0GCSqGSIb3DQEBCwUAA4IBAQACMqwDCeT1osfIn+sg
2aAJoVuAaGxhGlBl8UOSKO9hHVz1OKB02zU45bZ2/U9mqWb3hiTrA4w+p/cxmRLO
I3ej+TN2JD7MOx9CkHmp09AMqsevcVUDPgJYf7MiPqXmlJu2j4BpHHuVY4eIhDnW
3TcYupk11bdj/C4vcB3ETAdtu1TQg2McM/wEl8zQ73NuSKt2Oyq7x1UC/4/+RsLa
yD3H5Q+VUY8qwfyG8KfnrkSZ/zHkojte9Lfkcsy1O1yF0AmFyOUIaAVi5viDNocK
rZHhnxxDG4cnHcymdij0DEha/NV4F2+zZRFf5bmqrFzyuc5VObT1SRsvvGGs9Euw
82sW
-----END CERTIFICATE-----
